target datalayout = "e-m:e-p270:32:32-p271:32:32-p272:64:64-i64:64-i128:128-f80:128-n8:16:32:64-S128"
target triple = "x86_64-pc-linux-gnu"

; Function Attrs: nounwind uwtable
define internal void @apply_contrast_change16(ptr noundef %0, i64 noundef %1, ptr noundef %2, i64 noundef %3, i32 noundef %4, i32 noundef %5, ptr noundef %6, ptr noundef %7) #1 {
  %9 = alloca ptr, align 8
  %10 = alloca i64, align 8
  %11 = alloca ptr, align 8
  %12 = alloca i64, align 8
  %13 = alloca i32, align 4
  %14 = alloca i32, align 4
  %15 = alloca ptr, align 8
  %16 = alloca ptr, align 8
  %17 = alloca ptr, align 8
  %18 = alloca ptr, align 8
  %19 = alloca i32, align 4
  %20 = alloca i32, align 4
  %21 = alloca i32, align 4
  store ptr %0, ptr %9, align 8, !tbaa !51
  store i64 %1, ptr %10, align 8, !tbaa !90
  store ptr %2, ptr %11, align 8, !tbaa !51
  store i64 %3, ptr %12, align 8, !tbaa !90
  store i32 %4, ptr %13, align 4, !tbaa !28
  store i32 %5, ptr %14, align 4, !tbaa !28
  store ptr %6, ptr %15, align 8, !tbaa !52
  store ptr %7, ptr %16, align 8, !tbaa !52
  call void @llvm.lifetime.start.p0(i64 8, ptr %17) #8
  %22 = load ptr, ptr %9, align 8, !tbaa !51
  store ptr %22, ptr %17, align 8, !tbaa !96
  call void @llvm.lifetime.start.p0(i64 8, ptr %18) #8
  %23 = load ptr, ptr %11, align 8, !tbaa !51
  store ptr %23, ptr %18, align 8, !tbaa !96
  call void @llvm.lifetime.start.p0(i64 4, ptr %19) #8
  store i32 0, ptr %19, align 4, !tbaa !28
  br label %24

24:                                               ; preds = %63, %8
  %25 = load i32, ptr %19, align 4, !tbaa !28
  %26 = load i32, ptr %14, align 4, !tbaa !28
  %27 = icmp slt i32 %25, %26
  br i1 %27, label %29, label %28

28:                                               ; preds = %24
  store i32 2, ptr %20, align 4
  call void @llvm.lifetime.end.p0(i64 4, ptr %19) #8
  br label %66

29:                                               ; preds = %24
  call void @llvm.lifetime.start.p0(i64 4, ptr %21) #8
  store i32 0, ptr %21, align 4, !tbaa !28
  br label %30

30:                                               ; preds = %51, %29
  %31 = load i32, ptr %21, align 4, !tbaa !28
  %32 = load i32, ptr %13, align 4, !tbaa !28
  %33 = icmp slt i32 %31, %32
  br i1 %33, label %35, label %34

34:                                               ; preds = %30
  store i32 5, ptr %20, align 4
  call void @llvm.lifetime.end.p0(i64 4, ptr %21) #8
  br label %54

35:                                               ; preds = %30
  %36 = load ptr, ptr %15, align 8, !tbaa !52
  %37 = load ptr, ptr %17, align 8, !tbaa !96
  %38 = load i32, ptr %21, align 4, !tbaa !28
  %39 = sext i32 %38 to i64
  %40 = getelementptr inbounds i16, ptr %37, i64 %39
  %41 = load i16, ptr %40, align 2, !tbaa !98
  %42 = zext i16 %41 to i64
  %43 = getelementptr inbounds nuw float, ptr %36, i64 %42
  %44 = load float, ptr %43, align 4, !tbaa !73
  %45 = call i64 @llvm.lrint.i64.f32(float %44)
  %46 = trunc i64 %45 to i16
  %47 = load ptr, ptr %18, align 8, !tbaa !96
  %48 = load i32, ptr %21, align 4, !tbaa !28
  %49 = sext i32 %48 to i64
  %50 = getelementptr inbounds i16, ptr %47, i64 %49
  store i16 %46, ptr %50, align 2, !tbaa !98
  br label %51

51:                                               ; preds = %35
  %52 = load i32, ptr %21, align 4, !tbaa !28
  %53 = add nsw i32 %52, 1
  store i32 %53, ptr %21, align 4, !tbaa !28
  br label %30, !llvm.loop !106

54:                                               ; preds = %34
  %55 = load i64, ptr %12, align 8, !tbaa !90
  %56 = sdiv i64 %55, 2
  %57 = load ptr, ptr %18, align 8, !tbaa !96
  %58 = getelementptr inbounds i16, ptr %57, i64 %56
  store ptr %58, ptr %18, align 8, !tbaa !96
  %59 = load i64, ptr %10, align 8, !tbaa !90
  %60 = sdiv i64 %59, 2
  %61 = load ptr, ptr %17, align 8, !tbaa !96
  %62 = getelementptr inbounds i16, ptr %61, i64 %60
  store ptr %62, ptr %17, align 8, !tbaa !96
  br label %63

63:                                               ; preds = %54
  %64 = load i32, ptr %19, align 4, !tbaa !28
  %65 = add nsw i32 %64, 1
  store i32 %65, ptr %19, align 4, !tbaa !28
  br label %24, !llvm.loop !107

66:                                               ; preds = %28
  call void @llvm.lifetime.end.p0(i64 8, ptr %18) #8
  call void @llvm.lifetime.end.p0(i64 8, ptr %17) #8
  ret void
}