; Function Attrs: nofree norecurse nosync nounwind memory(argmem: readwrite) uwtable
define internal void @apply_contrast_change16(ptr noundef readonly captures(none) %0, i64 noundef %1, ptr noundef writeonly captures(none) %2, i64 noundef %3, i32 noundef %4, i32 noundef %5, ptr noundef readonly captures(none) %6, ptr readnone captures(none) %7) #7 {
  %9 = icmp sgt i32 %5, 0
  br i1 %9, label %.preheader.lr.ph, label %._crit_edge23

.preheader.lr.ph:                                 ; preds = %8
  %10 = icmp sgt i32 %4, 0
  %11 = sdiv i64 %3, 2
  %12 = sdiv i64 %1, 2
  br i1 %10, label %.preheader.us.preheader, label %._crit_edge23

.preheader.us.preheader:                          ; preds = %.preheader.lr.ph
  %wide.trip.count = zext nneg i32 %4 to i64
  br label %.preheader.us

.preheader.us:                                    ; preds = %.preheader.us.preheader, %._crit_edge.us
  %.01622.us = phi i32 [ %24, %._crit_edge.us ], [ 0, %.preheader.us.preheader ]
  %.01721.us = phi ptr [ %22, %._crit_edge.us ], [ %2, %.preheader.us.preheader ]
  %.01820.us = phi ptr [ %23, %._crit_edge.us ], [ %0, %.preheader.us.preheader ]
  br label %13

13:                                               ; preds = %.preheader.us, %13
  %indvars.iv = phi i64 [ 0, %.preheader.us ], [ %indvars.iv.next, %13 ]
  %14 = getelementptr inbounds nuw i16, ptr %.01820.us, i64 %indvars.iv
  %15 = load i16, ptr %14, align 2, !tbaa !88
  %16 = zext i16 %15 to i64
  %17 = getelementptr inbounds nuw float, ptr %6, i64 %16
  %18 = load float, ptr %17, align 4, !tbaa !64
  %19 = tail call i64 @llvm.lrint.i64.f32(float %18)
  %20 = trunc i64 %19 to i16
  %21 = getelementptr inbounds nuw i16, ptr %.01721.us, i64 %indvars.iv
  store i16 %20, ptr %21, align 2, !tbaa !88
  %indvars.iv.next = add nuw nsw i64 %indvars.iv, 1
  %exitcond.not = icmp eq i64 %indvars.iv.next, %wide.trip.count
  br i1 %exitcond.not, label %._crit_edge.us, label %13, !llvm.loop !96

._crit_edge.us:                                   ; preds = %13
  %22 = getelementptr inbounds i16, ptr %.01721.us, i64 %11
  %23 = getelementptr inbounds i16, ptr %.01820.us, i64 %12
  %24 = add nuw nsw i32 %.01622.us, 1
  %exitcond26.not = icmp eq i32 %24, %5
  br i1 %exitcond26.not, label %._crit_edge23, label %.preheader.us, !llvm.loop !97

._crit_edge23:                                    ; preds = %._crit_edge.us, %.preheader.lr.ph, %8
  ret void
}